target datalayout = "e-m:e-p270:32:32-p271:32:32-p272:64:64-i64:64-i128:128-f80:128-n8:16:32:64-S128"
target triple = "x86_64-pc-linux-gnu"

%"class.(anonymous namespace)::TypeIndexer" = type { ptr, ptr, ptr, i8, %"class.llvm::SmallVector" }
%"class.llvm::SmallVector" = type { %"class.llvm::SmallVectorImpl", %"struct.llvm::SmallVectorStorage" }
%"class.llvm::SmallVectorImpl" = type { %"class.llvm::SmallVectorTemplateBase" }
%"class.llvm::SmallVectorTemplateBase" = type { %"class.llvm::SmallVectorTemplateCommon" }
%"class.llvm::SmallVectorTemplateCommon" = type { %"class.llvm::SmallVectorBase" }
%"class.llvm::SmallVectorBase" = type { ptr, i32, i32 }
%"struct.llvm::SmallVectorStorage" = type { [48 x i8] }
%"class.clang::SourceLocation" = type { i32 }
%"class.clang::SourceRange" = type { %"class.clang::SourceLocation", %"class.clang::SourceLocation" }
%"class.clang::AttributeCommonInfo" = type { ptr, ptr, %"class.clang::SourceRange", %"class.clang::SourceLocation", i32 }
%"class.clang::InheritableAttr.base" = type { %"class.clang::Attr.base" }
%"class.clang::Attr.base" = type <{ %"class.clang::AttributeCommonInfo", i16, i8 }>
%"class.clang::AMDGPUMaxNumWorkGroupsAttr" = type { %"class.clang::InheritableAttr.base", ptr, ptr, ptr }

; Function Attrs: mustprogress nounwind uwtable
define linkonce_odr hidden noundef ptr @_ZNK5clang26AMDGPUMaxNumWorkGroupsAttr20getMaxNumWorkGroupsZEv(ptr noundef nonnull align 8 dereferenceable(64) %0) #0 comdat align 2 {
  %2 = alloca ptr, align 8
  store ptr %0, ptr %2, align 8
  %3 = load ptr, ptr %2, align 8
  %4 = getelementptr inbounds nuw %"class.clang::AMDGPUMaxNumWorkGroupsAttr", ptr %3, i32 0, i32 3
  %5 = load ptr, ptr %4, align 8
  ret ptr %5
}

; Function Attrs: mustprogress nounwind uwtable
define linkonce_odr hidden noundef ptr @_ZNK5clang26AMDGPUMaxNumWorkGroupsAttr20getMaxNumWorkGroupsYEv(ptr noundef nonnull align 8 dereferenceable(64) %0) #0 comdat align 2 {
  %2 = alloca ptr, align 8
  store ptr %0, ptr %2, align 8
  %3 = load ptr, ptr %2, align 8
  %4 = getelementptr inbounds nuw %"class.clang::AMDGPUMaxNumWorkGroupsAttr", ptr %3, i32 0, i32 2
  %5 = load ptr, ptr %4, align 8
  ret ptr %5
}

; Function Attrs: mustprogress nounwind uwtable
define internal noundef zeroext i1 @_ZN12_GLOBAL__N_111TypeIndexer12TraverseStmtEPN5clang4StmtE(ptr noundef nonnull align 8 dereferenceable(96) %0, ptr noundef %1) #0 align 2 {
  %3 = alloca ptr, align 8
  %4 = alloca ptr, align 8
  store ptr %0, ptr %3, align 8
  store ptr %1, ptr %4, align 8
  %5 = load ptr, ptr %3, align 8
  %6 = getelementptr inbounds nuw %"class.(anonymous namespace)::TypeIndexer", ptr %5, i32 0, i32 0
  %7 = load ptr, ptr %6, align 8
  %8 = load ptr, ptr %4, align 8
  %9 = getelementptr inbounds nuw %"class.(anonymous namespace)::TypeIndexer", ptr %5, i32 0, i32 1
  %10 = load ptr, ptr %9, align 8
  %11 = getelementptr inbounds nuw %"class.(anonymous namespace)::TypeIndexer", ptr %5, i32 0, i32 2
  %12 = load ptr, ptr %11, align 8
  call void @_ZN5clang5index15IndexingContext9indexBodyEPKNS_4StmtEPKNS_9NamedDeclEPKNS_11DeclContextE(ptr noundef nonnull align 8 dereferenceable(64) %7, ptr noundef %8, ptr noundef %10, ptr noundef %12)
  ret i1 true
}

; Function Attrs: mustprogress nounwind uwtable
define linkonce_odr hidden noundef ptr @_ZNK5clang26AMDGPUMaxNumWorkGroupsAttr20getMaxNumWorkGroupsXEv(ptr noundef nonnull align 8 dereferenceable(64) %0) #0 comdat align 2 {
  %2 = alloca ptr, align 8
  store ptr %0, ptr %2, align 8
  %3 = load ptr, ptr %2, align 8
  %4 = getelementptr inbounds nuw %"class.clang::AMDGPUMaxNumWorkGroupsAttr", ptr %3, i32 0, i32 1
  %5 = load ptr, ptr %4, align 8
  ret ptr %5
}

; Function Attrs: mustprogress nounwind uwtable
define internal noundef zeroext i1 @_ZN5clang19RecursiveASTVisitorIN12_GLOBAL__N_111TypeIndexerEE31VisitAMDGPUMaxNumWorkGroupsAttrEPNS_26AMDGPUMaxNumWorkGroupsAttrE(ptr noundef nonnull align 1 dereferenceable(1) %0, ptr noundef %1) #0 align 2 {
  %3 = alloca ptr, align 8
  %4 = alloca ptr, align 8
  store ptr %0, ptr %3, align 8
  store ptr %1, ptr %4, align 8
  ret i1 true
}

; Function Attrs: mustprogress nounwind uwtable
define internal noundef zeroext i1 @_ZN5clang19RecursiveASTVisitorIN12_GLOBAL__N_111TypeIndexerEE9VisitAttrEPNS_4AttrE(ptr noundef nonnull align 1 dereferenceable(1) %0, ptr noundef %1) #0 align 2 {
  %3 = alloca ptr, align 8
  %4 = alloca ptr, align 8
  store ptr %0, ptr %3, align 8
  store ptr %1, ptr %4, align 8
  ret i1 true
}

; Function Attrs: mustprogress nounwind uwtable
define internal noundef nonnull align 8 dereferenceable(96) ptr @_ZN5clang19RecursiveASTVisitorIN12_GLOBAL__N_111TypeIndexerEE10getDerivedEv(ptr noundef nonnull align 1 dereferenceable(1) %0) #0 align 2 {
  %2 = alloca ptr, align 8
  store ptr %0, ptr %2, align 8
  %3 = load ptr, ptr %2, align 8
  ret ptr %3
}

; Function Attrs: mustprogress nounwind uwtable
define internal noundef zeroext i1 @_ZN5clang19RecursiveASTVisitorIN12_GLOBAL__N_111TypeIndexerEE34TraverseAMDGPUMaxNumWorkGroupsAttrEPNS_26AMDGPUMaxNumWorkGroupsAttrE(ptr noundef nonnull align 1 dereferenceable(1) %0, ptr noundef %1) #0 align 2 {
  %3 = alloca i1, align 1
  %4 = alloca ptr, align 8
  %5 = alloca ptr, align 8
  store ptr %0, ptr %4, align 8
  store ptr %1, ptr %5, align 8
  %6 = load ptr, ptr %4, align 8
  %7 = call noundef nonnull align 8 dereferenceable(96) ptr @_ZN5clang19RecursiveASTVisitorIN12_GLOBAL__N_111TypeIndexerEE10getDerivedEv(ptr noundef nonnull align 1 dereferenceable(1) %6)
  %8 = load ptr, ptr %5, align 8
  %9 = call noundef zeroext i1 @_ZN5clang19RecursiveASTVisitorIN12_GLOBAL__N_111TypeIndexerEE9VisitAttrEPNS_4AttrE(ptr noundef nonnull align 1 dereferenceable(1) %7, ptr noundef %8)
  br i1 %9, label %11, label %10

10:                                               ; preds = %2
  store i1 false, ptr %3, align 1
  br label %35

11:                                               ; preds = %2
  %12 = call noundef nonnull align 8 dereferenceable(96) ptr @_ZN5clang19RecursiveASTVisitorIN12_GLOBAL__N_111TypeIndexerEE10getDerivedEv(ptr noundef nonnull align 1 dereferenceable(1) %6)
  %13 = load ptr, ptr %5, align 8
  %14 = call noundef zeroext i1 @_ZN5clang19RecursiveASTVisitorIN12_GLOBAL__N_111TypeIndexerEE31VisitAMDGPUMaxNumWorkGroupsAttrEPNS_26AMDGPUMaxNumWorkGroupsAttrE(ptr noundef nonnull align 1 dereferenceable(1) %12, ptr noundef %13)
  br i1 %14, label %16, label %15

15:                                               ; preds = %11
  store i1 false, ptr %3, align 1
  br label %35

16:                                               ; preds = %11
  %17 = call noundef nonnull align 8 dereferenceable(96) ptr @_ZN5clang19RecursiveASTVisitorIN12_GLOBAL__N_111TypeIndexerEE10getDerivedEv(ptr noundef nonnull align 1 dereferenceable(1) %6)
  %18 = load ptr, ptr %5, align 8
  %19 = call noundef ptr @_ZNK5clang26AMDGPUMaxNumWorkGroupsAttr20getMaxNumWorkGroupsXEv(ptr noundef nonnull align 8 dereferenceable(64) %18)
  %20 = call noundef zeroext i1 @_ZN12_GLOBAL__N_111TypeIndexer12TraverseStmtEPN5clang4StmtE(ptr noundef nonnull align 8 dereferenceable(96) %17, ptr noundef %19)
  br i1 %20, label %22, label %21

21:                                               ; preds = %16
  store i1 false, ptr %3, align 1
  br label %35

22:                                               ; preds = %16
  %23 = call noundef nonnull align 8 dereferenceable(96) ptr @_ZN5clang19RecursiveASTVisitorIN12_GLOBAL__N_111TypeIndexerEE10getDerivedEv(ptr noundef nonnull align 1 dereferenceable(1) %6)
  %24 = load ptr, ptr %5, align 8
  %25 = call noundef ptr @_ZNK5clang26AMDGPUMaxNumWorkGroupsAttr20getMaxNumWorkGroupsYEv(ptr noundef nonnull align 8 dereferenceable(64) %24)
  %26 = call noundef zeroext i1 @_ZN12_GLOBAL__N_111TypeIndexer12TraverseStmtEPN5clang4StmtE(ptr noundef nonnull align 8 dereferenceable(96) %23, ptr noundef %25)
  br i1 %26, label %28, label %27

27:                                               ; preds = %22
  store i1 false, ptr %3, align 1
  br label %35

28:                                               ; preds = %22
  %29 = call noundef nonnull align 8 dereferenceable(96) ptr @_ZN5clang19RecursiveASTVisitorIN12_GLOBAL__N_111TypeIndexerEE10getDerivedEv(ptr noundef nonnull align 1 dereferenceable(1) %6)
  %30 = load ptr, ptr %5, align 8
  %31 = call noundef ptr @_ZNK5clang26AMDGPUMaxNumWorkGroupsAttr20getMaxNumWorkGroupsZEv(ptr noundef nonnull align 8 dereferenceable(64) %30)
  %32 = call noundef zeroext i1 @_ZN12_GLOBAL__N_111TypeIndexer12TraverseStmtEPN5clang4StmtE(ptr noundef nonnull align 8 dereferenceable(96) %29, ptr noundef %31)
  br i1 %32, label %34, label %33

33:                                               ; preds = %28
  store i1 false, ptr %3, align 1
  br label %35

34:                                               ; preds = %28
  store i1 true, ptr %3, align 1
  br label %35

35:                                               ; preds = %34, %33, %27, %21, %15, %10
  %36 = load i1, ptr %3, align 1
  ret i1 %36
}