; Function Attrs: mustprogress nounwind uwtable
define internal fastcc void @_ZN5clang19RecursiveASTVisitorIN12_GLOBAL__N_111TypeIndexerEE34TraverseAMDGPUMaxNumWorkGroupsAttrEPNS_26AMDGPUMaxNumWorkGroupsAttrE(ptr noundef nonnull readonly align 1 captures(none) dereferenceable(1) %0, ptr noundef readonly captures(none) %1) unnamed_addr #0 align 2 {
  %3 = getelementptr inbounds nuw i8, ptr %1, i64 40
  %4 = load ptr, ptr %3, align 8
  %5 = load ptr, ptr %0, align 8
  %6 = getelementptr inbounds nuw i8, ptr %0, i64 8
  %7 = load ptr, ptr %6, align 8
  %8 = getelementptr inbounds nuw i8, ptr %0, i64 16
  %9 = load ptr, ptr %8, align 8
  tail call void @_ZN5clang5index15IndexingContext9indexBodyEPKNS_4StmtEPKNS_9NamedDeclEPKNS_11DeclContextE(ptr noundef nonnull align 8 dereferenceable(64) %5, ptr noundef %4, ptr noundef %7, ptr noundef %9) #13
  %10 = getelementptr inbounds nuw i8, ptr %1, i64 48
  %11 = load ptr, ptr %10, align 8
  %12 = load ptr, ptr %0, align 8
  %13 = load ptr, ptr %6, align 8
  %14 = load ptr, ptr %8, align 8
  tail call void @_ZN5clang5index15IndexingContext9indexBodyEPKNS_4StmtEPKNS_9NamedDeclEPKNS_11DeclContextE(ptr noundef nonnull align 8 dereferenceable(64) %12, ptr noundef %11, ptr noundef %13, ptr noundef %14) #13
  %15 = getelementptr inbounds nuw i8, ptr %1, i64 56
  %16 = load ptr, ptr %15, align 8
  %17 = load ptr, ptr %0, align 8
  %18 = load ptr, ptr %6, align 8
  %19 = load ptr, ptr %8, align 8
  tail call void @_ZN5clang5index15IndexingContext9indexBodyEPKNS_4StmtEPKNS_9NamedDeclEPKNS_11DeclContextE(ptr noundef nonnull align 8 dereferenceable(64) %17, ptr noundef %16, ptr noundef %18, ptr noundef %19) #13
  ret void
}